; Function Attrs: nounwind uwtable
define range(i32 0, 2) i32 @evp_set_default_properties_int(ptr noundef %0, ptr noundef %1, i32 noundef %2, i32 noundef %3) local_unnamed_addr #0 {
  %.not = icmp eq ptr %1, null
  br i1 %.not, label %9, label %5

5:                                                ; preds = %4
  %6 = tail call ptr @ossl_parse_query(ptr noundef %0, ptr noundef nonnull %1, i32 noundef 1) #5
  %7 = icmp eq ptr %6, null
  br i1 %7, label %8, label %9

8:                                                ; preds = %5
  tail call void @ERR_new() #5
  tail call void @ERR_set_debug(ptr noundef nonnull @.str, i32 noundef 515, ptr noundef nonnull @__func__.evp_set_default_properties_int) #5
  tail call void (i32, i32, ptr, ...) @ERR_set_error(i32 noundef 6, i32 noundef 210, ptr noundef null) #5
  br label %12

9:                                                ; preds = %5, %4
  %.0 = phi ptr [ %6, %5 ], [ null, %4 ]
  %10 = tail call fastcc i32 @evp_set_parsed_default_properties(ptr noundef %0, ptr noundef %.0, i32 noundef %2, i32 noundef %3)
  %.not11 = icmp eq i32 %10, 0
  br i1 %.not11, label %11, label %12

11:                                               ; preds = %9
  tail call void @ossl_property_free(ptr noundef %.0) #5
  br label %12

12:                                               ; preds = %9, %11, %8
  %.08 = phi i32 [ 0, %8 ], [ 0, %11 ], [ 1, %9 ]
  ret i32 %.08
}